;
; pdp11dasm version 0.0.3
; disassembly of BDV11.bin
;
000000: 112737 000016 177524	movb	#16,@#177524		; _...T.
000006: 000005              	reset				; ..
000010: 012700 000340       	mov	#340,r0			; @.`.
000014: 106400              	mtps	r0			; ..
000016: 012706 177524       	mov	#177524,r6		; F.T.
000022: 012737 000400 177520	mov	#400,@#177520		; _...P.
000030: 005001              	clr	r1			; ..
000032: 005002              	clr	r2			; ..
000034: 005003              	clr	r3			; ..
000036: 005004              	clr	r4			; ..
000040: 005005              	clr	r5			; ..
000042: 004067 000004       	jsr	r0,52			; 7...
000046: 000000              	halt				; ..
;
000050: 000753              	br	0			; k.
;
000052: 000257              	ccc				; /.
000054: 001774              	beq	46			; |.
000056: 100773              	bmi	46			; {.
000060: 102772              	bvs	46			; z.
000062: 103771              	bcs	46			; y.
000064: 002770              	blt	46			; x.
000066: 003767              	ble	46			; w.
000070: 101766              	blos	46			; v.
000072: 101015              	bhi	126			; ..
000074: 100364              	bpl	46			; t.
000076: 002363              	bge	46			; s.
000100: 003362              	bgt	46			; r.
000102: 002400              	blt	104			; ..
000104: 000277              	scc				; ?.
000106: 001357              	bne	46			; o.
000110: 100356              	bpl	46			; n.
000112: 102355              	bvc	46			; m.
000114: 103354              	bcc	46			; l.
000116: 003353              	bgt	46			; k.
000120: 101352              	bhi	46			; j.
000122: 002751              	blt	46			; i.
000124: 002002              	bge	132			; ..
000126: 000270              	sen				; 8.
000130: 000761              	br	74			; q.
;
000132: 022700 173046       	cmp	#173046,r0		; @%&v
000136: 001343              	bne	46			; c.
000140: 022706 177522       	cmp	#177522,r6		; F%R.
000144: 001340              	bne	46			; `.
000146: 022737 000340 177522	cmp	#340,@#177522		; _%`.R.
000154: 001334              	bne	46			; \.
000156: 005726              	tst	(r6)+			; V.
000160: 022706 177524       	cmp	#177524,r6		; F%T.
000164: 001330              	bne	46			; X.
000166: 000277              	scc				; ?.
000170: 005001              	clr	r1			; ..
000172: 001041              	bne	276			; !.
000174: 101040              	bhi	276			;  .
000176: 003037              	bgt	276			; ..
000200: 005101              	com	r1			; A.
000202: 103035              	bcc	276			; ..
000204: 003034              	bgt	276			; ..
000206: 005401              	neg	r1			; ..
000210: 101032              	bhi	276			; ..
000212: 002431              	blt	276			; ..
000214: 006001              	ror	r1			; ..
000216: 103027              	bcc	276			; ..
000220: 100026              	bpl	276			; ..
000222: 005501              	adc	r1			; A.
000224: 103424              	bcs	276			; ..
000226: 000261              	sec				; 1.
000230: 100022              	bpl	276			; ..
000232: 002021              	bge	276			; ..
000234: 006101              	rol	r1			; A.
000236: 103017              	bcc	276			; ..
000240: 102016              	bvc	276			; ..
000242: 006201              	asr	r1			; ..
000244: 103014              	bcc	276			; ..
000246: 102013              	bvc	276			; ..
000250: 005601              	sbc	r1			; ..
000252: 003011              	bgt	276			; ..
000254: 006301              	asl	r1			; A.
000256: 002407              	blt	276			; ..
000260: 005201              	inc	r1			; ..
000262: 001405              	beq	276			; ..
000264: 005301              	dec	r1			; A.
000266: 001003              	bne	276			; ..
000270: 005701              	tst	r1			; A.
000272: 003001              	bgt	276			; ..
000274: 001402              	beq	302			; ..
000276: 004067 177544       	jsr	r0,46			; 7.d.
000302: 112702 000377       	movb	#377,r2			; B...
000306: 001441              	beq	412			; !.
000310: 105002              	clrb	r2			; ..
000312: 101037              	bhi	412			; ..
000314: 105102              	comb	r2			; B.
000316: 103035              	bcc	412			; ..
000320: 100034              	bpl	412			; ..
000322: 105602              	sbcb	r2			; ..
000324: 103432              	bcs	412			; ..
000326: 105202              	incb	r2			; ..
000330: 100030              	bpl	412			; ..
000332: 105402              	negb	r2			; ..
000334: 101026              	bhi	412			; ..
000336: 105302              	decb	r2			; B.
000340: 103024              	bcc	412			; ..
000342: 003023              	bgt	412			; ..
000344: 000302              	swab	r2			; B.
000346: 001421              	beq	412			; ..
000350: 106302              	aslb	r2			; B.
000352: 002017              	bge	412			; ..
000354: 106002              	rorb	r2			; ..
000356: 103415              	bcs	412			; ..
000360: 003414              	ble	412			; ..
000362: 106202              	asrb	r2			; ..
000364: 103012              	bcc	412			; ..
000366: 102411              	bvs	412			; ..
000370: 106102              	rolb	r2			; B.
000372: 100007              	bpl	412			; ..
000374: 001406              	beq	412			; ..
000376: 105502              	adcb	r2			; B.
000400: 100404              	bmi	412			; ..
000402: 001003              	bne	412			; ..
000404: 105702              	tstb	r2			; B.
000406: 103401              	bcs	412			; ..
000410: 001402              	beq	416			; ..
000412: 004067 177430       	jsr	r0,46			; 7...
000416: 012701 000001       	mov	#1,r1			; A...
000422: 012702 173416       	mov	#173416,r2		; B..w
000426: 012737 020000 177522	mov	#20000,@#177522		; _.. R.
000434: 012703 173502       	mov	#173502,r3		; C.Bw
000440: 030137 177522       	bit	r1,@#177522		; _0R.
000444: 001410              	beq	466			; ..
000446: 012205              	mov	(r2)+,r5		; ..
000450: 012204              	mov	(r2)+,r4		; ..
000452: 022305              	cmp	(r3)+,r5		; E$
000454: 001011              	bne	500			; ..
000456: 021304              	cmp	(r3),r4			; D"
000460: 001007              	bne	500			; ..
000462: 000167 000016       	jmp	504			; w...
;
000466: 022222              	cmp	(r2)+,(r2)+		; .$
000470: 006301              	asl	r1			; A.
000472: 022701 040000       	cmp	#40000,r1		; A%.@
000476: 001360              	bne	440			; p.
000500: 004067 177342       	jsr	r0,46			; 7.b~
000504: 012700 000001       	mov	#1,r0			; @...
000510: 012701 173662       	mov	#173662,r1		; A.2w
000514: 030037 177524       	bit	r0,@#177524		; .0T.
000520: 001401              	beq	524			; ..
000522: 000445              	br	636			; %.
;
000524: 022121              	cmp	(r1)+,(r1)+		; Q$
000526: 006300              	asl	r0			; @.
000530: 022700 000020       	cmp	#20,r0			; @%..
000534: 001367              	bne	514			; w.
000536: 005000              	clr	r0			; ..
000540: 005010              	clr	(r0)			; ..
000542: 013737 177524 000002	mov	@#177524,@#2		; _.T...
000550: 052737 100000 000002	bis	#100000,@#2		; _U....
000556: 013703 000002       	mov	@#2,r3			; C...
000562: 042703 177017       	bic	#177017,r3		; CE.~
000566: 012702 000005       	mov	#5,r2			; B...
000572: 005737 000002       	tst	@#2			; _...
000576: 100403              	bmi	606			; ..
000600: 022103              	cmp	(r1)+,r3		; C$
000602: 001414              	beq	634			; ..
000604: 000403              	br	614			; ..
;
000606: 005721              	tst	(r1)+			; Q.
000610: 021103              	cmp	(r1),r3			; C"
000612: 001410              	beq	634			; ..
000614: 005721              	tst	(r1)+			; Q.
000616: 022121              	cmp	(r1)+,(r1)+		; Q$
000620: 077214              	sob	r2,572			; .~
000622: 032737 007000 177524	bit	#7000,@#177524		; _5..T.
000630: 001406              	beq	646			; ..
000632: 000401              	br	636			; ..
;
000634: 005721              	tst	(r1)+			; Q.
000636: 012105              	mov	(r1)+,r5		; E.
000640: 012104              	mov	(r1)+,r4		; D.
000642: 000167 000120       	jmp	766			; w.P.
;
000646: 005737 000002       	tst	@#2			; _...
000652: 100001              	bpl	656			; ..
000654: 000000              	halt				; ..
;
000656: 000167 177116       	jmp	0			; w.N~
;
000662: 173470 001402       	cmpf	f0,@1402(r0)		; 8w..
000666: 173634              	cmpf	f2,@(r4)+		; .w
000670: 007416              	invalid opcode			; ..
000672: 173000              	subf	f0,r0			; .v
000674: 006414              	mark	14			; ..
000676: 173302              	subf	f3,r2			; Bv
000700: 003406              	ble	716			; ..
000702: 054104              	bis	-(r1),r4		; DX
000704: 000040              	invalid opcode			;  .
000706: 173000              	subf	f0,r0			; .v
000710: 005412              	neg	(r2)			; ..
000712: 046104 000100       	bic	100(r1),r4		; DL@.
000716: 173034              	subf	f0,@(r4)+		; .v
000720: 004410              	jsr	r4,(r0)			; ..
000722: 045504              	bic	@-(r5),r4		; DK
000724: 000200              	rts	r0			; ..
;
000726: 173536              	cmpf	f1,@(r6)+		; ^w
000730: 004410              	jsr	r4,(r0)			; ..
000732: 054504              	bis	-(r5),r4		; DY
000734: 000140              	jmp	-(r0)			; `.
;
000736: 173050              	subf	f0,@-(r0)		; (v
000740: 005412              	neg	(r2)			; ..
000742: 000000              	halt				; ..
;
000744: 000400              	br	746			; ..
;
000746: 173050              	subf	f0,@-(r0)		; (v
000750: 000400              	br	752			; ..
;
000752: 173000              	subf	f0,r0			; .v
000754: 007416              	invalid opcode			; ..
000756: 000000              	halt				; ..
000760: 000000              	halt				; ..
000762: 000000              	halt				; ..
000764: 000000              	halt				; ..
;
000766: 010437 177520       	mov	r4,@#177520		; ..P.
000772: 010507              	mov	r5,r7			; G.
000774: 052525              	bis	(r5)+,(r5)+		; UU
000776: 017042 010001       	mov	@10001(r0),-(r2)	; "...
001002: 010111              	mov	r1,(r1)			; I.
001004: 005721              	tst	(r1)+			; Q.
001006: 020103              	cmp	r1,r3			; C 
001010: 101774              	blos	1002			; |.
001012: 024101              	cmp	-(r1),r1		; A(
001014: 001402              	beq	1022			; ..
001016: 011104              	mov	(r1),r4			; D.
001020: 000000              	halt				; ..
;
001022: 020100              	cmp	r1,r0			; @ 
001024: 001372              	bne	1012			; z.
001026: 005002              	clr	r2			; ..
001030: 010221              	mov	r2,(r1)+		; ..
001032: 020103              	cmp	r1,r3			; C 
001034: 101775              	blos	1030			; }.
001036: 005102              	com	r2			; B.
001040: 010241              	mov	r2,-(r1)		; !.
001042: 020211              	cmp	r2,(r1)			; . 
001044: 001402              	beq	1052			; ..
001046: 011104              	mov	(r1),r4			; D.
001050: 000000              	halt				; ..
;
001052: 020100              	cmp	r1,r0			; @ 
001054: 001371              	bne	1040			; y.
001056: 010301              	mov	r3,r1			; A.
001060: 005702              	tst	r2			; B.
001062: 001365              	bne	1036			; u.
001064: 012702 125125       	mov	#125125,r2		; B.U*
001070: 110241              	movb	r2,-(r1)		; !.
001072: 000302              	swab	r2			; B.
001074: 110241              	movb	r2,-(r1)		; !.
001076: 020211              	cmp	r2,(r1)			; . 
001100: 001402              	beq	1106			; ..
001102: 011104              	mov	(r1),r4			; D.
001104: 000000              	halt				; ..
;
001106: 000302              	swab	r2			; B.
001110: 162701 002000       	sub	#2000,r1		; Ae..
001114: 103365              	bcc	1070			; u.
001116: 000400              	br	1120			; ..
;
001120: 112737 000016 177524	movb	#16,@#177524		; _...T.
001126: 012701 173432       	mov	#173432,r1		; A..w
001132: 010046              	mov	r0,-(r6)		; &.
001134: 012100              	mov	(r1)+,r0		; @.
001136: 005040              	clr	-(r0)			;  .
001140: 010002              	mov	r0,r2			; ..
001142: 005740              	tst	-(r0)			; `.
001144: 010210              	mov	r2,(r0)			; ..
001146: 005700              	tst	r0			; @.
001150: 003372              	bgt	1136			; z.
001152: 012600              	mov	(r6)+,r0		; ..
001154: 012106              	mov	(r1)+,r6		; F.
001156: 012104              	mov	(r1)+,r4		; D.
001160: 012102              	mov	(r1)+,r2		; B.
001162: 012103              	mov	(r1)+,r3		; C.
001164: 004767 000200       	call	1370			; w...
001170: 104777              	trap	377			; ..
001172: 004767 000132       	call	1330			; w.Z.
001176: 004767 000166       	call	1370			; w.v.
001202: 104377              	emt	377			; ..
001204: 004767 000120       	call	1330			; w.P.
001210: 024444              	cmp	-(r4),-(r4)		; $)
001212: 004767 000152       	call	1370			; w.j.
001216: 000004              	iot				; ..
001220: 004767 000104       	call	1330			; w.D.
001224: 004767 000140       	call	1370			; w.`.
001230: 000003              	bpt				; ..
001232: 004767 000072       	call	1330			; w.:.
001236: 004767 000126       	call	1370			; w.V.
001242: 107777              	invalid opcode			; ..
001244: 004767 000060       	call	1330			; w.0.
001250: 004767 000114       	call	1370			; w.L.
001254: 000101              	jmp	r1			; A.
;
001256: 004767 000046       	call	1330			; w.&.
001262: 000450              	br	1404			; (.
;
001264: 106705              	mfps	r5			; E.
001266: 020627 001074       	cmp	r6,#1074		; .!<.
001272: 001014              	bne	1324			; ..
001274: 022316              	cmp	(r3)+,(r6)		; N$
001276: 001012              	bne	1324			; ..
001300: 022766 000340 000002	cmp	#340,2(r6)		; v%`...
001306: 001006              	bne	1324			; ..
001310: 120521              	cmpb	r5,(r1)+		; Q!
001312: 001004              	bne	1324			; ..
001314: 005705              	tst	r5			; E.
001316: 103401              	bcs	1322			; ..
001320: 000006              	rtt				; ..
;
001322: 000002              	rti				; ..
;
001324: 004067 000354       	jsr	r0,1704			; 7.l.
001330: 106705              	mfps	r5			; E.
001332: 120527 000340       	cmpb	r5,#340			; W!`.
001336: 001012              	bne	1364			; ..
001340: 020627 001076       	cmp	r6,#1076		; .!>.
001344: 001007              	bne	1364			; ..
001346: 005044              	clr	-(r4)			; $.
001350: 010046              	mov	r0,-(r6)		; &.
001352: 010400              	mov	r4,r0			; ..
001354: 005744              	tst	-(r4)			; d.
001356: 010014              	mov	r0,(r4)			; ..
001360: 012600              	mov	(r6)+,r0		; ..
001362: 000207              	ret				; ..
;
001364: 004067 000314       	jsr	r0,1704			; 7.L.
001370: 111164 177776       	movb	(r1),177776(r4)		; t.~.
001374: 011264 177774       	mov	(r2),177774(r4)		; 4.|.
001400: 000257              	ccc				; /.
001402: 000207              	ret				; ..
;
001404: 012706 177524       	mov	#177524,r6		; F.T.
001410: 012700 000004       	mov	#4,r0			; @...
001414: 012701 173672       	mov	#173672,r1		; A.:w
001420: 012704 000400       	mov	#400,r4			; D...
001424: 012705 173514       	mov	#173514,r5		; E.Lw
001430: 000556              	br	1766			; n.
;
001432: 000400              	br	1434			; ..
;
001434: 001100              	bne	1636			; @.
001436: 000040              	invalid opcode			;  .
001440: 173452              	cmpf	f0,@-(r2)		; *w
001442: 173454              	cmpf	f0,@-(r4)		; ,w
001444: 100601              	bmi	1050			; ..
001446: 102210              	bvc	1070			; ..
001450: 100602              	bmi	1056			; ..
001452: 173264 173172       	subf	f2,173172(r4)		; 4vzv
001456: 173204              	subf	f2,r4			; .v
001460: 173220              	subf	f2,(r0)+		; .v
001462: 173232              	subf	f2,@(r2)+		; .v
001464: 173244              	subf	f2,-(r4)		; $v
001466: 173256              	subf	f2,@-(r6)		; .v
001470: 012701 173672       	mov	#173672,r1		; A.:w
001474: 022701 173672       	cmp	#173672,r1		; A%:w
001500: 001014              	bne	1532			; ..
001502: 013702 173672       	mov	@#173672,r2		; B.:w
001506: 016703 000160       	mov	1672,r3			; C.p.
001512: 021102              	cmp	(r1),r2			; B"
001514: 001006              	bne	1532			; ..
001516: 021103              	cmp	(r1),r3			; C"
001520: 001004              	bne	1532			; ..
001522: 017704 000144       	mov	@1672,r4		; D.d.
001526: 021204              	cmp	(r2),r4			; ."
001530: 001402              	beq	1536			; ..
001532: 004067 000146       	jsr	r0,1704			; 7.f.
001536: 012700 173672       	mov	#173672,r0		; @.:w
001542: 012001              	mov	(r0)+,r1		; ..
001544: 012002              	mov	(r0)+,r2		; ..
001546: 022700 173676       	cmp	#173676,r0		; @%>w
001552: 001045              	bne	1666			; %.
001554: 011203              	mov	(r2),r3			; ..
001556: 022703 052525       	cmp	#52525,r3		; C%UU
001562: 001041              	bne	1666			; !.
001564: 012204              	mov	(r2)+,r4		; ..
001566: 020403              	cmp	r4,r3			; .!
001570: 001036              	bne	1666			; ..
001572: 012204              	mov	(r2)+,r4		; ..
001574: 022704 125252       	cmp	#125252,r4		; D%**
001600: 001032              	bne	1666			; ..
001602: 014205              	mov	-(r2),r5		; ..
001604: 020405              	cmp	r4,r5			; .!
001606: 001027              	bne	1666			; ..
001610: 014205              	mov	-(r2),r5		; ..
001612: 020503              	cmp	r5,r3			; C!
001614: 001024              	bne	1666			; ..
001616: 015001              	mov	@-(r0),r1		; ..
001620: 020103              	cmp	r1,r3			; C 
001622: 001021              	bne	1666			; ..
001624: 015001              	mov	@-(r0),r1		; ..
001626: 020401              	cmp	r4,r1			; .!
001630: 001016              	bne	1666			; ..
001632: 013002              	mov	@(r0)+,r2		; ..
001634: 020204              	cmp	r2,r4			; . 
001636: 001013              	bne	1666			; ..
001640: 013002              	mov	@(r0)+,r2		; ..
001642: 020302              	cmp	r3,r2			; B 
001644: 001010              	bne	1666			; ..
001646: 016002 000004       	mov	4(r0),r2		; ....
001652: 020102              	cmp	r1,r2			; B 
001654: 001004              	bne	1666			; ..
001656: 017002 177776       	mov	@177776(r0),r2		; ..~.
001662: 020302              	cmp	r3,r2			; B 
001664: 001415              	beq	1720			; ..
001666: 004067 000012       	jsr	r0,1704			; 7...
001672: 173676 173700       	cmpf	f2,@173700(r6)		; >w@w
001676: 125252              	cmpb	@-(r2),@-(r2)		; **
001700: 052525              	bis	(r5)+,(r5)+		; UU
001702: 125252              	cmpb	@-(r2),@-(r2)		; **
001704: 000000              	halt				; ..
;
001706: 012705 173000       	mov	#173000,r5		; E..v
001712: 012704 000400       	mov	#400,r4			; D...
001716: 000423              	br	1766			; ..
;
001720: 012705 173000       	mov	#173000,r5		; E..v
001724: 012704 002404       	mov	#2404,r4		; D...
001730: 000416              	br	1766			; ..
;
001732: 000000              	halt				; ..
001734: 000000              	halt				; ..
001736: 000000              	halt				; ..
001740: 000000              	halt				; ..
001742: 000000              	halt				; ..
001744: 000000              	halt				; ..
001746: 000000              	halt				; ..
001750: 000000              	halt				; ..
001752: 000000              	halt				; ..
001754: 000000              	halt				; ..
001756: 000000              	halt				; ..
001760: 000000              	halt				; ..
001762: 000000              	halt				; ..
001764: 000000              	halt				; ..
;
001766: 010437 177520       	mov	r4,@#177520		; ..P.
001772: 010507              	mov	r5,r7			; G.
001774: 052525              	bis	(r5)+,(r5)+		; UU
001776: 020656              	cmp	r6,@-(r6)		; .!
002000: 012700 173564       	mov	#173564,r0		; @.tw
002004: 012001              	mov	(r0)+,r1		; ..
002006: 012002              	mov	(r0)+,r2		; ..
002010: 012003              	mov	(r0)+,r3		; ..
002012: 011304              	mov	(r3),r4			; D.
002014: 010305              	mov	r3,r5			; E.
002016: 011172 000010       	mov	(r1),@10(r2)		; z...
002022: 022170 000020       	cmp	(r1)+,@20(r0)		; x$..
002026: 001040              	bne	2130			;  .
002030: 011166 177776       	mov	(r1),177776(r6)		; v.~.
002034: 022166 177776       	cmp	(r1)+,177776(r6)	; v$~.
002040: 001033              	bne	2130			; ..
002042: 011133              	mov	(r1),@(r3)+		; [.
002044: 022135              	cmp	(r1)+,@(r5)+		; ]$
002046: 001030              	bne	2130			; ..
002050: 020305              	cmp	r3,r5			; E 
002052: 001026              	bne	2130			; ..
002054: 022705 173614       	cmp	#173614,r5		; E%.w
002060: 001023              	bne	2130			; ..
002062: 011153              	mov	(r1),@-(r3)		; k.
002064: 022155              	cmp	(r1)+,@-(r5)		; m$
002066: 001020              	bne	2130			; ..
002070: 020102              	cmp	r1,r2			; B 
002072: 001016              	bne	2130			; ..
002074: 010405              	mov	r4,r5			; ..
002076: 011114              	mov	(r1),(r4)		; L.
002100: 022115              	cmp	(r1)+,(r5)		; M$
002102: 001012              	bne	2130			; ..
002104: 011124              	mov	(r1),(r4)+		; T.
002106: 022125              	cmp	(r1)+,(r5)+		; U$
002110: 001007              	bne	2130			; ..
002112: 020405              	cmp	r4,r5			; .!
002114: 001005              	bne	2130			; ..
002116: 020604              	cmp	r6,r4			; .!
002120: 001003              	bne	2130			; ..
002122: 011145              	mov	(r1),-(r5)		; e.
002124: 022144              	cmp	(r1)+,-(r4)		; d$
002126: 001402              	beq	2134			; ..
002130: 004067 000476       	jsr	r0,2632			; 7.>.
002134: 012702 173566       	mov	#173566,r2		; B.vw
002140: 012203              	mov	(r2)+,r3		; ..
002142: 012204              	mov	(r2)+,r4		; ..
002144: 011405              	mov	(r4),r5			; ..
002146: 010637 177522       	mov	r6,@#177522		; ..R.
002152: 020615              	cmp	r6,(r5)			; .!
002154: 001011              	bne	2200			; ..
002156: 011267 004340       	mov	(r2),6522		; 7.`.
002162: 021215              	cmp	(r2),(r5)		; ."
002164: 001005              	bne	2200			; ..
002166: 012777 052525 000416	mov	#52525,@2612		; ..UU..
002174: 021315              	cmp	(r3),(r5)		; M"
002176: 001402              	beq	2204			; ..
002200: 004067 000426       	jsr	r0,2632			; 7...
002204: 012702 173570       	mov	#173570,r2		; B.xw
002210: 011203              	mov	(r2),r3			; ..
002212: 011304              	mov	(r3),r4			; D.
002214: 005014              	clr	(r4)			; ..
002216: 005124              	com	(r4)+			; T.
002220: 005444              	neg	-(r4)			; $.
002222: 006033              	ror	@(r3)+			; ..
002224: 005553              	adc	@-(r3)			; k.
002226: 000261              	sec				; 1.
002230: 006172 000022       	rol	@22(r2)			; z...
002234: 006266 177776       	asr	177776(r6)		; 6.~.
002240: 005614              	sbc	(r4)			; ..
002242: 006324              	asl	(r4)+			; T.
002244: 005244              	inc	-(r4)			; $.
002246: 005333              	dec	@(r3)+			; [.
002250: 005753              	tst	@-(r3)			; k.
002252: 001402              	beq	2260			; ..
002254: 004067 000352       	jsr	r0,2632			; 7.j.
002260: 012714 177777       	mov	#177777,(r4)		; L...
002264: 105014              	clrb	(r4)			; ..
002266: 105124              	comb	(r4)+			; T.
002270: 105644              	sbcb	-(r4)			; $.
002272: 105233              	incb	@(r3)+			; ..
002274: 105453              	negb	@-(r3)			; +.
002276: 105372 000022       	decb	@22(r2)			; z...
002302: 000366 177776       	swab	177776(r6)		; v.~.
002306: 106314              	aslb	(r4)			; L.
002310: 106024              	rorb	(r4)+			; ..
002312: 106244              	asrb	-(r4)			; $.
002314: 106133              	rolb	@(r3)+			; [.
002316: 105553              	adcb	@-(r3)			; k.
002320: 105724              	tstb	(r4)+			; T.
002322: 001002              	bne	2330			; ..
002324: 105724              	tstb	(r4)+			; T.
002326: 001402              	beq	2334			; ..
002330: 004067 000276       	jsr	r0,2632			; 7.>.
002334: 012701 173570       	mov	#173570,r1		; A.xw
002340: 011104              	mov	(r1),r4			; D.
002342: 011403              	mov	(r4),r3			; ..
002344: 014102              	mov	-(r1),r2		; B.
002346: 014105              	mov	-(r1),r5		; E.
002350: 005013              	clr	(r3)			; ..
002352: 113134              	movb	@(r1)+,@(r4)+		; \.
002354: 121513              	cmpb	(r5),(r3)		; K#
002356: 001021              	bne	2422			; ..
002360: 111305              	movb	(r3),r5			; E.
002362: 113113              	movb	@(r1)+,(r3)		; K.
002364: 121254              	cmpb	(r2),@-(r4)		; ,"
002366: 001015              	bne	2422			; ..
002370: 011302              	mov	(r3),r2			; B.
002372: 022705 177652       	cmp	#177652,r5		; E%*.
002376: 001011              	bne	2422			; ..
002400: 022702 000125       	cmp	#125,r2			; B%U.
002404: 001006              	bne	2422			; ..
002406: 113104              	movb	@(r1)+,r4		; D.
002410: 120304              	cmpb	r3,r4			; D 
002412: 001003              	bne	2422			; ..
002414: 112103              	movb	(r1)+,r3		; C.
002416: 120503              	cmpb	r5,r3			; C!
002420: 001402              	beq	2426			; ..
002422: 004067 000204       	jsr	r0,2632			; 7...
002426: 012700 173564       	mov	#173564,r0		; @.tw
002432: 012001              	mov	(r0)+,r1		; ..
002434: 012002              	mov	(r0)+,r2		; ..
002436: 012003              	mov	(r0)+,r3		; ..
002440: 011304              	mov	(r3),r4			; D.
002442: 012700 177777       	mov	#177777,r0		; @...
002446: 000277              	scc				; ?.
002450: 050005              	bis	r0,r5			; .P
002452: 100042              	bpl	2560			; ".
002454: 041205              	bic	(r2),r5			; .B
002456: 032205              	bit	(r2)+,r5		; .4
002460: 001037              	bne	2560			; ..
002462: 050033              	bis	r0,@(r3)+		; .P
002464: 100035              	bpl	2560			; ..
002466: 042153              	bic	(r1)+,@-(r3)		; kD
002470: 100433              	bmi	2560			; ..
002472: 031214              	bit	(r2),(r4)		; .2
002474: 001031              	bne	2560			; ..
002476: 022137 177522       	cmp	(r1)+,@#177522		; _$R.
002502: 001026              	bne	2560			; ..
002504: 022205              	cmp	(r2)+,r5		; .$
002506: 001024              	bne	2560			; ..
002510: 150005              	bisb	r0,r5			; .P
002512: 100022              	bpl	2560			; ..
002514: 144205              	bicb	-(r2),r5		; .H
002516: 100420              	bmi	2560			; ..
002520: 131205              	bitb	(r2),r5			; .2
002522: 001016              	bne	2560			; ..
002524: 000305              	swab	r5			; E.
002526: 100014              	bpl	2560			; ..
002530: 130514              	bitb	r5,(r4)			; L1
002532: 001012              	bne	2560			; ..
002534: 150514              	bisb	r5,(r4)			; LQ
002536: 100010              	bpl	2560			; ..
002540: 000314              	swab	(r4)			; L.
002542: 100406              	bmi	2560			; ..
002544: 131233              	bitb	(r2),@(r3)+		; .2
002546: 001004              	bne	2560			; ..
002550: 144153              	bicb	-(r1),@-(r3)		; kH
002552: 001002              	bne	2560			; ..
002554: 021214              	cmp	(r2),(r4)		; ."
002556: 001017              	bne	2616			; ..
002560: 004067 000046       	jsr	r0,2632			; 7.&.
002564: 173572 173602       	cmpf	f1,@173602(r2)		; zw.w
002570: 173612              	cmpf	f2,(r2)			; .w
002572: 125252              	cmpb	@-(r2),@-(r2)		; **
002574: 052525              	bis	(r5)+,(r5)+		; UU
002576: 177400              	ldcdf	f0,r0			; ..
002600: 000377 052525       	swab	@55331			; ..UU
002604: 125252              	cmpb	@-(r2),@-(r2)		; **
002606: 000377 177400       	swab	@2212			; ....
002612: 177522              	ldcdf	f1,(r2)+		; R.
002614: 173612              	cmpf	f2,(r2)			; .w
002616: 012705 173000       	mov	#173000,r5		; E..v
002622: 012704 003406       	mov	#3406,r4		; D...
002626: 000167 000134       	jmp	2766			; w.\.
;
002632: 000000              	halt				; ..
;
002634: 012705 173000       	mov	#173000,r5		; E..v
002640: 012704 000400       	mov	#400,r4			; D...
002644: 000450              	br	2766			; (.
;
002646: 000000              	halt				; ..
002650: 000000              	halt				; ..
002652: 000000              	halt				; ..
002654: 000000              	halt				; ..
002656: 000000              	halt				; ..
002660: 000000              	halt				; ..
002662: 000000              	halt				; ..
002664: 000000              	halt				; ..
002666: 000000              	halt				; ..
002670: 000000              	halt				; ..
002672: 000000              	halt				; ..
002674: 000000              	halt				; ..
002676: 000000              	halt				; ..
002700: 000000              	halt				; ..
002702: 000000              	halt				; ..
002704: 000000              	halt				; ..
002706: 000000              	halt				; ..
002710: 000000              	halt				; ..
002712: 000000              	halt				; ..
002714: 000000              	halt				; ..
002716: 000000              	halt				; ..
002720: 000000              	halt				; ..
002722: 000000              	halt				; ..
002724: 000000              	halt				; ..
002726: 000000              	halt				; ..
002730: 000000              	halt				; ..
002732: 000000              	halt				; ..
002734: 000000              	halt				; ..
002736: 000000              	halt				; ..
002740: 000000              	halt				; ..
002742: 000000              	halt				; ..
002744: 000000              	halt				; ..
002746: 000000              	halt				; ..
002750: 000000              	halt				; ..
002752: 000000              	halt				; ..
002754: 000000              	halt				; ..
002756: 000000              	halt				; ..
002760: 000000              	halt				; ..
002762: 000000              	halt				; ..
002764: 000000              	halt				; ..
;
002766: 010437 177520       	mov	r4,@#177520		; ..P.
002772: 010507              	mov	r5,r7			; G.
002774: 052525              	bis	(r5)+,(r5)+		; UU
002776: 065162 012701       	add	@-(r1),12701(r2)	; rjA.
003002: 173234              	subf	f2,@(r4)+		; .v
003004: 011104              	mov	(r1),r4			; D.
003006: 014103              	mov	-(r1),r3		; C.
003010: 061104              	add	(r1),r4			; Db
003012: 101425              	blos	3066			; ..
003014: 003424              	ble	3066			; ..
003016: 061104              	add	(r1),r4			; Db
003020: 101422              	blos	3066			; ..
003022: 002421              	blt	3066			; ..
003024: 061104              	add	(r1),r4			; Db
003026: 003417              	ble	3066			; ..
003030: 010451              	mov	r4,@-(r1)		; ).
003032: 011104              	mov	(r1),r4			; D.
003034: 064114              	add	-(r1),(r4)		; Lh
003036: 101413              	blos	3066			; ..
003040: 002012              	bge	3066			; ..
003042: 064114              	add	-(r1),(r4)		; Lh
003044: 101010              	bhi	3066			; ..
003046: 002007              	bge	3066			; ..
003050: 061114              	add	(r1),(r4)		; Lb
003052: 101005              	bhi	3066			; ..
003054: 002004              	bge	3066			; ..
003056: 064114              	add	-(r1),(r4)		; Lh
003060: 002402              	blt	3066			; ..
003062: 003001              	bgt	3066			; ..
003064: 001402              	beq	3072			; ..
003066: 004067 000144       	jsr	r0,3236			; 7.d.
003072: 012701 173234       	mov	#173234,r1		; A..v
003076: 014104              	mov	-(r1),r4		; D.
003100: 161104              	sub	(r1),r4			; Db
003102: 002427              	blt	3162			; ..
003104: 003026              	bgt	3162			; ..
003106: 103425              	bcs	3162			; ..
003110: 161104              	sub	(r1),r4			; Db
003112: 003023              	bgt	3162			; ..
003114: 101022              	bhi	3162			; ..
003116: 161104              	sub	(r1),r4			; Db
003120: 101420              	blos	3162			; ..
003122: 002017              	bge	3162			; ..
003124: 010451              	mov	r4,@-(r1)		; ).
003126: 011104              	mov	(r1),r4			; D.
003130: 164114              	sub	-(r1),(r4)		; Lh
003132: 003413              	ble	3162			; ..
003134: 101012              	bhi	3162			; ..
003136: 161114              	sub	(r1),(r4)		; Lb
003140: 103410              	bcs	3162			; ..
003142: 102407              	bvs	3162			; ..
003144: 005741              	tst	-(r1)			; a.
003146: 164114              	sub	-(r1),(r4)		; Lh
003150: 103004              	bcc	3162			; ..
003152: 003403              	ble	3162			; ..
003154: 022714 077777       	cmp	#77777,(r4)		; L%..
003160: 001402              	beq	3166			; ..
003162: 004067 000050       	jsr	r0,3236			; 7.(.
003166: 012701 000002       	mov	#2,r1			; A...
003172: 010102              	mov	r1,r2			; B.
003174: 005302              	dec	r2			; B.
003176: 002407              	blt	3216			; ..
003200: 005701              	tst	r1			; A.
003202: 002405              	blt	3216			; ..
003204: 077105              	sob	r1,3174			; E~
003206: 005701              	tst	r1			; A.
003210: 001002              	bne	3216			; ..
003212: 000167 000040       	jmp	3256			; w. .
;
003216: 004067 000014       	jsr	r0,3236			; 7...
003222: 100003              	bpl	3232			; ..
003224: 152525              	bisb	(r5)+,(r5)+		; UU
003226: 125252              	cmpb	@-(r2),@-(r2)		; **
003230: 177522              	ldcdf	f1,(r2)+		; R.
003232: 052525              	bis	(r5)+,(r5)+		; UU
003234: 025252              	cmp	@-(r2),@-(r2)		; **
003236: 000000              	halt				; ..
;
003240: 005726              	tst	(r6)+			; V.
003242: 012704 000400       	mov	#400,r4			; D...
003246: 012705 173000       	mov	#173000,r5		; E..v
003252: 000167 000510       	jmp	3766			; w.H.
;
003256: 012700 000002       	mov	#2,r0			; @...
003262: 012701 173666       	mov	#173666,r1		; A.6w
003266: 012704 000400       	mov	#400,r4			; D...
003272: 012705 173514       	mov	#173514,r5		; E.Lw
003276: 000167 000464       	jmp	3766			; w.4.
;
003302: 112737 000014 177524	movb	#14,@#177524		; _...T.
003310: 012705 173524       	mov	#173524,r5		; E.Tw
003314: 012704 007416       	mov	#7416,r4		; D...
003320: 000167 000442       	jmp	3766			; w.".
;
003324: 013703 177562       	mov	@#177562,r3		; C.r.
003330: 012704 173672       	mov	#173672,r4		; D.:w
003334: 112402              	movb	(r4)+,r2		; ..
003336: 004767 000302       	call	3644			; w.B.
003342: 105714              	tstb	(r4)			; L.
003344: 001373              	bne	3334			; {.
003346: 010102              	mov	r1,r2			; B.
003350: 004767 000270       	call	3644			; w.8.
003354: 000302              	swab	r2			; B.
003356: 004767 000262       	call	3644			; w.2.
003362: 012704 173677       	mov	#173677,r4		; D.?w
003366: 112402              	movb	(r4)+,r2		; ..
003370: 004767 000250       	call	3644			; w.(.
003374: 105714              	tstb	(r4)			; L.
003376: 001373              	bne	3366			; {.
003400: 112737 000013 177524	movb	#13,@#177524		; _...T.
003406: 005000              	clr	r0			; ..
003410: 005003              	clr	r3			; ..
003412: 005004              	clr	r4			; ..
003414: 005037 000000       	clr	@#0			; ....
003420: 004767 000044       	call	3470			; w.$.
003424: 010403              	mov	r4,r3			; ..
003426: 000304              	swab	r4			; D.
003430: 001773              	beq	3420			; {.
003432: 010403              	mov	r4,r3			; ..
003434: 005004              	clr	r4			; ..
003436: 004767 000026       	call	3470			; w...
003442: 162704 000070       	sub	#70,r4			; De8.
003446: 062704 000010       	add	#10,r4			; De..
003452: 103005              	bcc	3466			; ..
003454: 110400              	movb	r4,r0			; ..
003456: 010037 000000       	mov	r0,@#0			; ....
003462: 004767 000002       	call	3470			; w...
003466: 000705              	br	3302			; E.
;
003470: 105737 177560       	tstb	@#177560		; _.p.
003474: 100375              	bpl	3470			; }.
003476: 105004              	clrb	r4			; ..
003500: 153704 177562       	bisb	@#177562,r4		; DWr.
003504: 142704 000200       	bicb	#200,r4			; DE..
003510: 122704 000015       	cmpb	#15,r4			; D%..
003514: 001406              	beq	3532			; ..
003516: 122704 000040       	cmpb	#40,r4			; D% .
003522: 103267              	bcc	3302			; 7.
003524: 122704 000177       	cmpb	#177,r4			; D%..
003530: 101664              	blos	3302			; 4.
003532: 110402              	movb	r4,r2			; ..
003534: 004767 000104       	call	3644			; w.D.
003540: 122704 000015       	cmpb	#15,r4			; D%..
003544: 001401              	beq	3550			; ..
003546: 000207              	ret				; ..
;
003550: 112702 000012       	movb	#12,r2			; B...
003554: 004767 000064       	call	3644			; w.4.
003560: 042703 020040       	bic	#20040,r3		; CE  
003564: 005703              	tst	r3			; C.
003566: 001001              	bne	3572			; ..
003570: 000644              	br	3302			; $.
;
003572: 022703 000116       	cmp	#116,r3			; C%N.
003576: 001420              	beq	3640			; ..
003600: 022703 000131       	cmp	#131,r3			; C%Y.
003604: 001003              	bne	3614			; ..
003606: 012705 173536       	mov	#173536,r5		; E.^w
003612: 000404              	br	3624			; ..
;
003614: 010337 000002       	mov	r3,@#2			; _...
003620: 012705 173566       	mov	#173566,r5		; E.vw
003624: 012701 173702       	mov	#173702,r1		; A.Bw
003630: 012704 000400       	mov	#400,r4			; D...
003634: 000167 000126       	jmp	3766			; w.V.
;
003640: 000000              	halt				; ..
;
003642: 000617              	br	3302			; ..
;
003644: 005005              	clr	r5			; ..
003646: 105737 177564       	tstb	@#177564		; _.t.
003652: 100003              	bpl	3662			; ..
003654: 110237 177566       	movb	r2,@#177566		; ..v.
003660: 000207              	ret				; ..
;
003662: 005205              	inc	r5			; ..
003664: 001370              	bne	3646			; x.
003666: 000000              	halt				; ..
;
003670: 000604              	br	3302			; ..
;
003672: 006440              	mark	40			;  .
003674: 020012              	cmp	r0,(r2)			; . 
003676: 006400              	mark	0			; ..
003700: 051412              	bis	(r4),(r2)		; .S
003702: 040524              	bic	r5,(r4)+		; TA
003704: 052122              	bis	(r1)+,(r2)+		; RT
003706: 020077 000000       	cmp	r0,@3712		; ? ..
003712: 000000              	halt				; ..
003714: 000000              	halt				; ..
003716: 000000              	halt				; ..
003720: 000000              	halt				; ..
003722: 000000              	halt				; ..
003724: 000000              	halt				; ..
003726: 000000              	halt				; ..
003730: 000000              	halt				; ..
003732: 000000              	halt				; ..
003734: 000000              	halt				; ..
003736: 000000              	halt				; ..
003740: 000000              	halt				; ..
003742: 000000              	halt				; ..
003744: 000000              	halt				; ..
003746: 000000              	halt				; ..
003750: 000000              	halt				; ..
003752: 000000              	halt				; ..
003754: 000000              	halt				; ..
003756: 000000              	halt				; ..
003760: 000000              	halt				; ..
003762: 000000              	halt				; ..
003764: 000000              	halt				; ..
;
003766: 010437 177520       	mov	r4,@#177520		; ..P.
003772: 010507              	mov	r5,r7			; G.
003774: 052525              	bis	(r5)+,(r5)+		; UU
003776: 161744              	sub	(r7),-(r4)		; dc
004000: 112737 000004 177524	movb	#4,@#177524		; _...T.
004006: 012737 004410 177520	mov	#4410,@#177520		; _...P.
004014: 106437 000026       	mtps	@#26			; ....
004020: 013705 000024       	mov	@#24,r5			; E...
004024: 012704 000400       	mov	#400,r4			; D...
004030: 000167 000732       	jmp	4766			; w.Z.
;
004034: 042700 000004       	bic	#4,r0			; @E..
004040: 005037 000000       	clr	@#0			; ....
004044: 012701 174400       	mov	#174400,r1		; A..y
004050: 012706 001100       	mov	#1100,r6		; F.@.
004054: 004767 000040       	call	4120			; w. .
004060: 004767 000052       	call	4136			; w.*.
004064: 103003              	bcc	4074			; ..
004066: 077204              	sob	r2,4060			; .~
004070: 004767 000426       	call	4522			; w...
004074: 012702 001100       	mov	#1100,r2		; B.@.
004100: 004767 000056       	call	4162			; w...
004104: 004767 000126       	call	4236			; w.V.
004110: 004767 000172       	call	4306			; w.z.
004114: 004767 000272       	call	4412			; w.:.
004120: 112737 000012 177524	movb	#12,@#177524		; _...T.
004126: 112702 000010       	movb	#10,r2			; B...
004132: 010004              	mov	r0,r4			; ..
004134: 000304              	swab	r4			; D.
004136: 042704 000016       	bic	#16,r4			; DE..
004142: 052704 000004       	bis	#4,r4			; DU..
004146: 012761 000013 000004	mov	#13,4(r1)		; q.....
004154: 004767 000274       	call	4454			; w.<.
004160: 000207              	ret				; ..
;
004162: 042704 000016       	bic	#16,r4			; DE..
004166: 052704 000010       	bis	#10,r4			; DU..
004172: 004767 000256       	call	4454			; w...
004176: 103014              	bcc	4230			; ..
004200: 032703 040000       	bit	#40000,r3		; C5.@
004204: 001002              	bne	4212			; ..
004206: 010305              	mov	r3,r5			; E.
004210: 000402              	br	4216			; ..
;
004212: 004767 000140       	call	4356			; w.`.
004216: 004767 177714       	call	4136			; w.L.
004222: 077221              	sob	r2,4162			; .~
004224: 004767 000272       	call	4522			; w.:.
004230: 016105 000006       	mov	6(r1),r5		; E...
004234: 000207              	ret				; ..
;
004236: 012702 000010       	mov	#10,r2			; B...
004242: 042704 000016       	bic	#16,r4			; DE..
004246: 052704 000006       	bis	#6,r4			; DU..
004252: 042705 100177       	bic	#100177,r5		; EE..
004256: 005205              	inc	r5			; ..
004260: 010561 000004       	mov	r5,4(r1)		; q...
004264: 004767 000164       	call	4454			; w.t.
004270: 103005              	bcc	4304			; ..
004272: 004767 177664       	call	4162			; w.4.
004276: 077217              	sob	r2,4242			; .~
004300: 004767 000216       	call	4522			; w...
004304: 000207              	ret				; ..
;
004306: 012702 000010       	mov	#10,r2			; B...
004312: 042704 000016       	bic	#16,r4			; DE..
004316: 052704 000014       	bis	#14,r4			; DU..
004322: 005061 000002       	clr	2(r1)			; 1...
004326: 005061 000004       	clr	4(r1)			; 1...
004332: 012761 177400 000006	mov	#177400,6(r1)		; q.....
004340: 004767 000110       	call	4454			; w.H.
004344: 103003              	bcc	4354			; ..
004346: 077217              	sob	r2,4312			; .~
004350: 004767 000146       	call	4522			; w.f.
004354: 000207              	ret				; ..
;
004356: 010405              	mov	r4,r5			; ..
004360: 042705 000016       	bic	#16,r5			; EE..
004364: 052705 000004       	bis	#4,r5			; EU..
004370: 012761 000003 000004	mov	#3,4(r1)		; q.....
004376: 010511              	mov	r5,(r1)			; I.
004400: 004767 000052       	call	4456			; w.*.
004404: 016105 000006       	mov	6(r1),r5		; E...
004410: 000207              	ret				; ..
;
004412: 112737 000011 177524	movb	#11,@#177524		; _...T.
004420: 022737 000240 000000	cmp	#240,@#0		; _% ...
004426: 001402              	beq	4434			; ..
004430: 004767 000066       	call	4522			; w.6.
004434: 112737 000037 177524	movb	#37,@#177524		; _...T.
004442: 005005              	clr	r5			; ..
004444: 012704 000400       	mov	#400,r4			; D...
004450: 000167 000312       	jmp	4766			; w.J.
;
004454: 010411              	mov	r4,(r1)			; ..
004456: 005003              	clr	r3			; ..
004460: 012746 000100       	mov	#100,-(r6)		; f.@.
004464: 105711              	tstb	(r1)			; I.
004466: 100407              	bmi	4506			; ..
004470: 005203              	inc	r3			; ..
004472: 001374              	bne	4464			; |.
004474: 005316              	dec	(r6)			; N.
004476: 001372              	bne	4464			; z.
004500: 011103              	mov	(r1),r3			; C.
004502: 004767 000014       	call	4522			; w...
004506: 005726              	tst	(r6)+			; V.
004510: 005711              	tst	(r1)			; I.
004512: 100001              	bpl	4516			; ..
004514: 000261              	sec				; 1.
004516: 011103              	mov	(r1),r3			; C.
004520: 000207              	ret				; ..
;
004522: 004767 177630       	call	4356			; w...
004526: 011602              	mov	(r6),r2			; ..
004530: 000000              	halt				; ..
;
004532: 000167 177316       	jmp	4054			; w.N~
;
004536: 112737 000012 177524	movb	#12,@#177524		; _...T.
004544: 012703 000010       	mov	#10,r3			; C...
004550: 012701 177404       	mov	#177404,r1		; A...
004554: 010004              	mov	r0,r4			; ..
004556: 005002              	clr	r2			; ..
004560: 052704 000010       	bis	#10,r4			; DU..
004564: 006304              	asl	r4			; D.
004566: 103376              	bcc	4564			; ~.
004570: 010461 000006       	mov	r4,6(r1)		; 1...
004574: 032761 000200 177774	bit	#200,177774(r1)		; q5..|.
004602: 001774              	beq	4574			; |.
004604: 012761 177000 000002	mov	#177000,2(r1)		; q..~..
004612: 012711 000005       	mov	#5,(r1)			; I...
004616: 105711              	tstb	(r1)			; I.
004620: 100404              	bmi	4632			; ..
004622: 005202              	inc	r2			; ..
004624: 005702              	tst	r2			; B.
004626: 001373              	bne	4616			; {.
004630: 000404              	br	4642			; ..
;
004632: 005711              	tst	(r1)			; I.
004634: 100402              	bmi	4642			; ..
004636: 000167 177572       	jmp	4434			; w.z.
;
004642: 005303              	dec	r3			; C.
004644: 001341              	bne	4550			; a.
004646: 011103              	mov	(r1),r3			; C.
004650: 016102 177776       	mov	177776(r1),r2		; B.~.
004654: 000000              	halt				; ..
;
004656: 000727              	br	4536			; W.
;
004660: 000000              	halt				; ..
004662: 000000              	halt				; ..
004664: 000000              	halt				; ..
004666: 000000              	halt				; ..
004670: 000000              	halt				; ..
004672: 000000              	halt				; ..
004674: 000000              	halt				; ..
004676: 000000              	halt				; ..
004700: 000000              	halt				; ..
004702: 000000              	halt				; ..
004704: 000000              	halt				; ..
004706: 000000              	halt				; ..
004710: 000000              	halt				; ..
004712: 000000              	halt				; ..
004714: 000000              	halt				; ..
004716: 000000              	halt				; ..
004720: 000000              	halt				; ..
004722: 000000              	halt				; ..
004724: 000000              	halt				; ..
004726: 000000              	halt				; ..
004730: 000000              	halt				; ..
004732: 000000              	halt				; ..
004734: 000000              	halt				; ..
004736: 000000              	halt				; ..
004740: 000000              	halt				; ..
004742: 000000              	halt				; ..
004744: 000000              	halt				; ..
004746: 000000              	halt				; ..
004750: 000000              	halt				; ..
004752: 000000              	halt				; ..
004754: 000000              	halt				; ..
004756: 000000              	halt				; ..
004760: 000000              	halt				; ..
004762: 000000              	halt				; ..
004764: 000000              	halt				; ..
;
004766: 010437 177520       	mov	r4,@#177520		; ..P.
004772: 010507              	mov	r5,r7			; G.
004774: 052525              	bis	(r5)+,(r5)+		; UU
004776: 124453              	cmpb	-(r4),@-(r3)		; +)
005000: 012706 003100       	mov	#3100,r6		; F.@.
005004: 012737 177777 003110	mov	#177777,@#3110		; _...H.
005012: 004767 000306       	call	5324			; w.F.
005016: 052704 000006       	bis	#6,r4			; DU..
005022: 004767 000366       	call	5414			; w.v.
005026: 052704 000002       	bis	#2,r4			; DU..
005032: 005005              	clr	r5			; ..
005034: 004767 000424       	call	5464			; w...
005040: 103772              	bcs	5026			; z.
005042: 004767 000572       	call	5640			; w.z.
005046: 000761              	br	5012			; q.
;
005050: 012706 003100       	mov	#3100,r6		; F.@.
005054: 005037 003110       	clr	@#3110			; ..H.
005060: 004767 000240       	call	5324			; w. .
005064: 052704 000400       	bis	#400,r4			; DU..
005070: 012702 000010       	mov	#10,r2			; B...
005074: 012737 000001 003102	mov	#1,@#3102		; _...B.
005102: 005037 003106       	clr	@#3106			; ..F.
005106: 052704 000006       	bis	#6,r4			; DU..
005112: 004767 000432       	call	5550			; w...
005116: 103003              	bcc	5126			; ..
005120: 077213              	sob	r2,5074			; .~
005122: 004767 000554       	call	5702			; w.l.
005126: 012737 000100 003104	mov	#100,@#3104		; _.@.D.
005134: 032704 000400       	bit	#400,r4			; D5..
005140: 001403              	beq	5150			; ..
005142: 012737 000200 003104	mov	#200,@#3104		; _...D.
005150: 013761 003102 000002	mov	@#3102,2(r1)		; q.B...
005156: 004767 000370       	call	5552			; w.x.
005162: 103756              	bcs	5120			; n.
005164: 012761 000001 000002	mov	#1,2(r1)		; q.....
005172: 004767 000354       	call	5552			; w.l.
005176: 103011              	bcc	5222			; ..
005200: 032704 000400       	bit	#400,r4			; D5..
005204: 001003              	bne	5214			; ..
005206: 052704 000400       	bis	#400,r4			; DU..
005212: 000742              	br	5120			; b.
;
005214: 042704 000400       	bic	#400,r4			; DE..
005220: 000737              	br	5120			; _.
;
005222: 042704 000004       	bic	#4,r4			; DE..
005226: 004767 000316       	call	5550			; w.N.
005232: 103732              	bcs	5120			; Z.
005234: 013761 003104 000002	mov	@#3104,2(r1)		; q.D...
005242: 004767 000304       	call	5552			; w.D.
005246: 103724              	bcs	5120			; T.
005250: 013761 003106 000002	mov	@#3106,2(r1)		; q.F...
005256: 004767 000270       	call	5552			; w.8.
005262: 103716              	bcs	5120			; N.
005264: 063737 003104 003106	add	@#3104,@#3106		; _gD.F.
005272: 063737 003104 003106	add	@#3104,@#3106		; _gD.F.
005300: 062737 000002 003102	add	#2,@#3102		; _e..B.
005306: 022737 000011 003102	cmp	#11,@#3102		; _%..B.
005314: 001274              	bne	5106			; <.
005316: 004767 000316       	call	5640			; w.N.
005322: 000656              	br	5060			; ..
;
005324: 005037 000000       	clr	@#0			; ....
005330: 012701 177170       	mov	#177170,r1		; A.x~
005334: 112737 000012 177524	movb	#12,@#177524		; _...T.
005342: 012704 000001       	mov	#1,r4			; D...
005346: 005700              	tst	r0			; @.
005350: 001404              	beq	5362			; ..
005352: 052704 000020       	bis	#20,r4			; DU..
005356: 012700 000001       	mov	#1,r0			; @...
005362: 012702 000740       	mov	#740,r2			; B.`.
005366: 004767 000212       	call	5604			; w...
005372: 000241              	clc				; !.
005374: 032761 000200 000002	bit	#200,2(r1)		; q5....
005402: 001003              	bne	5412			; ..
005404: 077210              	sob	r2,5366			; .~
005406: 004767 000270       	call	5702			; w.8.
005412: 000207              	ret				; ..
;
005414: 012702 000010       	mov	#10,r2			; B...
005420: 004767 000124       	call	5550			; w.T.
005424: 103003              	bcc	5434			; ..
005426: 077204              	sob	r2,5420			; .~
005430: 004767 000246       	call	5702			; w.&.
005434: 032711 000040       	bit	#40,(r1)		; I5 .
005440: 001006              	bne	5456			; ..
005442: 112761 000001 000002	movb	#1,2(r1)		; q.....
005450: 004767 000076       	call	5552			; w.>.
005454: 000763              	br	5424			; s.
;
005456: 042704 000016       	bic	#16,r4			; DE..
005462: 000207              	ret				; ..
;
005464: 012702 000010       	mov	#10,r2			; B...
005470: 004767 000054       	call	5550			; w.,.
005474: 103003              	bcc	5504			; ..
005476: 077204              	sob	r2,5470			; .~
005500: 004767 000176       	call	5702			; w.~.
005504: 032704 000002       	bit	#2,r4			; D5..
005510: 001003              	bne	5520			; ..
005512: 112561 000002       	movb	(r5)+,2(r1)		; q...
005516: 000402              	br	5524			; ..
;
005520: 116125 000002       	movb	2(r1),(r5)+		; U...
005524: 004767 000022       	call	5552			; w...
005530: 103001              	bcc	5534			; ..
005532: 000756              	br	5470			; n.
;
005534: 032711 000040       	bit	#40,(r1)		; I5 .
005540: 001761              	beq	5504			; q.
005542: 042704 000016       	bic	#16,r4			; DE..
005546: 000207              	ret				; ..
;
005550: 010411              	mov	r4,(r1)			; ..
005552: 005003              	clr	r3			; ..
005554: 105711              	tstb	(r1)			; I.
005556: 100410              	bmi	5600			; ..
005560: 032711 000040       	bit	#40,(r1)		; I5 .
005564: 001005              	bne	5600			; ..
005566: 005203              	inc	r3			; ..
005570: 001371              	bne	5554			; y.
005572: 011103              	mov	(r1),r3			; C.
005574: 004767 000102       	call	5702			; w.B.
005600: 005711              	tst	(r1)			; I.
005602: 100014              	bpl	5634			; ..
005604: 010405              	mov	r4,r5			; ..
005606: 042705 000016       	bic	#16,r5			; EE..
005612: 052705 000012       	bis	#12,r5			; EU..
005616: 010511              	mov	r5,(r1)			; I.
005620: 032711 000040       	bit	#40,(r1)		; I5 .
005624: 001775              	beq	5620			; }.
005626: 016105 000002       	mov	2(r1),r5		; E...
005632: 000261              	sec				; 1.
005634: 011103              	mov	(r1),r3			; C.
005636: 000207              	ret				; ..
;
005640: 112737 000011 177524	movb	#11,@#177524		; _...T.
005646: 022737 000240 000000	cmp	#240,@#0		; _% ...
005654: 001402              	beq	5662			; ..
005656: 004767 000020       	call	5702			; w...
005662: 112737 000037 177524	movb	#37,@#177524		; _...T.
005670: 005005              	clr	r5			; ..
005672: 012704 000400       	mov	#400,r4			; D...
005676: 000167 000064       	jmp	5766			; w.4.
;
005702: 004767 177676       	call	5604			; w.>.
005706: 011602              	mov	(r6),r2			; ..
005710: 000000              	halt				; ..
;
005712: 005737 003110       	tst	@#3110			; _.H.
005716: 001402              	beq	5724			; ..
005720: 000167 177066       	jmp	5012			; w.6~
;
005724: 000167 177130       	jmp	5060			; w.X~
;
005730: 000000              	halt				; ..
005732: 000000              	halt				; ..
005734: 000000              	halt				; ..
005736: 000000              	halt				; ..
005740: 000000              	halt				; ..
005742: 000000              	halt				; ..
005744: 000000              	halt				; ..
005746: 000000              	halt				; ..
005750: 000000              	halt				; ..
005752: 000000              	halt				; ..
005754: 000000              	halt				; ..
005756: 000000              	halt				; ..
005760: 000000              	halt				; ..
005762: 000000              	halt				; ..
005764: 000000              	halt				; ..
;
005766: 010437 177520       	mov	r4,@#177520		; ..P.
005772: 010507              	mov	r5,r7			; G.
005774: 052525              	bis	(r5)+,(r5)+		; UU
005776: 113667 112737       	movb	@(r6)+,120741		; 7._.
006002: 000012              	invalid opcode			; ..
006004: 177524              	ldcdf	f1,(r4)+		; T.
006006: 012701 000010       	mov	#10,r1			; A...
006012: 012702 173042       	mov	#173042,r2		; B."v
006016: 030137 177524       	bit	r1,@#177524		; _0T.
006022: 001014              	bne	6054			; ..
006024: 005722              	tst	(r2)+			; R.
006026: 006301              	asl	r1			; A.
006030: 032701 000100       	bit	#100,r1			; A5@.
006034: 001770              	beq	6016			; x.
006036: 000000              	halt				; ..
;
006040: 000757              	br	6000			; o.
;
006042: 010003              	mov	r0,r3			; ..
006044: 000000              	halt				; ..
;
006046: 167004 122243       	sub	@122243(r0),r4		; .n#$
006052: 000002              	rti				; ..
;
006054: 005000              	clr	r0			; ..
006056: 011201              	mov	(r2),r1			; ..
006060: 000400              	br	6062			; ..
;
006062: 012706 017776       	mov	#17776,r6		; F.~.
006066: 012705 000006       	mov	#6,r5			; E...
006072: 012715 000340       	mov	#340,(r5)		; M.`.
006076: 012745 173050       	mov	#173050,-(r5)		; e.(v
006102: 012702 173734       	mov	#173734,r2		; B.\w
006106: 010146              	mov	r1,-(r6)		; f.
006110: 012701 175610       	mov	#175610,r1		; A..{
006114: 111603              	movb	(r6),r3			; ..
006116: 001007              	bne	6136			; ..
006120: 032737 000100 177524	bit	#100,@#177524		; _5@.T.
006126: 001414              	beq	6160			; ..
006130: 012701 176500       	mov	#176500,r1		; A.@}
006134: 000411              	br	6160			; ..
;
006136: 012701 160010       	mov	#160010,r1		; A..`
006142: 005711              	tst	(r1)			; I.
006144: 111204              	movb	(r2),r4			; ..
006146: 060401              	add	r4,r1			; .a
006150: 005201              	inc	r1			; ..
006152: 040401              	bic	r4,r1			; .A
006154: 005703              	tst	r3			; C.
006156: 001371              	bne	6142			; y.
006160: 160515              	sub	r5,(r5)			; Ma
006162: 006300              	asl	r0			; @.
006164: 006300              	asl	r0			; @.
006166: 006300              	asl	r0			; @.
006170: 060001              	add	r0,r1			; .`
006172: 000316              	swab	(r6)			; N.
006174: 112600              	movb	(r6)+,r0		; ..
006176: 012706 017460       	mov	#17460,r6		; F.0.
006202: 012704 173672       	mov	#173672,r4		; D.:w
006206: 012737 000012 177524	mov	#12,@#177524		; _...T.
006214: 060004              	add	r0,r4			; .`
006216: 112403              	movb	(r4)+,r3		; ..
006220: 012711 000006       	mov	#6,(r1)			; I...
006224: 012761 036226 000002	mov	#36226,2(r1)		; q..<..
006232: 105700              	tstb	r0			; @.
006234: 001407              	beq	6254			; ..
006236: 100003              	bpl	6246			; ..
006240: 012761 101226 000002	mov	#101226,2(r1)		; q.....
006246: 032711 001000       	bit	#1000,(r1)		; I5..
006252: 001775              	beq	6246			; }.
006254: 032737 000100 177524	bit	#100,@#177524		; _5@.T.
006262: 001003              	bne	6272			; ..
006264: 032711 020000       	bit	#20000,(r1)		; I5. 
006270: 001775              	beq	6264			; }.
006272: 022121              	cmp	(r1)+,(r1)+		; Q$
006274: 052721 000030       	bis	#30,(r1)+		; QU..
006300: 012711 000626       	mov	#626,(r1)		; I...
006304: 000401              	br	6310			; ..
;
006306: 112411              	movb	(r4)+,(r1)		; ..
006310: 105761 177776       	tstb	177776(r1)		; q.~.
006314: 100375              	bpl	6310			; }.
006316: 005303              	dec	r3			; C.
006320: 001372              	bne	6306			; z.
006322: 112737 000010 177524	movb	#10,@#177524		; _...T.
006330: 042741 000020       	bic	#20,-(r1)		; aE..
006334: 024141              	cmp	-(r1),-(r1)		; a(
006336: 005004              	clr	r4			; ..
006340: 012703 000010       	mov	#10,r3			; C...
006344: 004767 000062       	call	6432			; w.2.
006350: 001312              	bne	6176			; J.
006352: 122527 000220       	cmpb	(r5)+,#220		; W%..
006356: 001307              	bne	6176			; G.
006360: 113703 000002       	movb	@#2,r3			; C...
006364: 042703 177700       	bic	#177700,r3		; CE@.
006370: 000303              	swab	r3			; C.
006372: 151503              	bisb	(r5),r3			; CS
006374: 122323              	cmpb	(r3)+,(r3)+		; S$
006376: 005004              	clr	r4			; ..
006400: 112737 000011 177524	movb	#11,@#177524		; _...T.
006406: 004767 000032       	call	6444			; w...
006412: 001271              	bne	6176			; 9.
006414: 005715              	tst	(r5)			; M.
006416: 001267              	bne	6176			; 7.
006420: 112737 000037 177524	movb	#37,@#177524		; _...T.
006426: 000137 000006       	jmp	@#6			; _...
;
006432: 042711 000024       	bic	#24,(r1)		; IE..
006436: 012711 000422       	mov	#422,(r1)		; I...
006442: 012746 005046       	mov	#5046,-(r6)		; f.&.
006446: 005005              	clr	r5			; ..
006450: 012702 000017       	mov	#17,r2			; B...
006454: 005046              	clr	-(r6)			; &.
006456: 105711              	tstb	(r1)			; I.
006460: 100416              	bmi	6516			; ..
006462: 005316              	dec	(r6)			; N.
006464: 001374              	bne	6456			; |.
006466: 005302              	dec	r2			; B.
006470: 001372              	bne	6456			; z.
006472: 105706              	tstb	r6			; F.
006474: 003242              	bgt	6202			; ".
006476: 005011              	clr	(r1)			; ..
006500: 012703 000012       	mov	#12,r3			; C...
006504: 005302              	dec	r2			; B.
006506: 001376              	bne	6504			; ~.
006510: 005303              	dec	r3			; C.
006512: 001374              	bne	6504			; |.
006514: 000630              	br	6176			; ..
;
006516: 112737 000007 177524	movb	#7,@#177524		; _...T.
006524: 005726              	tst	(r6)+			; V.
006526: 042711 000400       	bic	#400,(r1)		; IE..
006532: 116114 000002       	movb	2(r1),(r4)		; L...
006536: 105700              	tstb	r0			; @.
006540: 001013              	bne	6570			; ..
006542: 005716              	tst	(r6)			; N.
006544: 001411              	beq	6570			; ..
006546: 121427 000220       	cmpb	(r4),#220		; .#..
006552: 001406              	beq	6570			; ..
006554: 121427 000005       	cmpb	(r4),#5			; .#..
006560: 001403              	beq	6570			; ..
006562: 121427 000201       	cmpb	(r4),#201		; .#..
006566: 001330              	bne	6450			; X.
006570: 112737 000006 177524	movb	#6,@#177524		; _...T.
006576: 005016              	clr	(r6)			; ..
006600: 112446              	movb	(r4)+,-(r6)		; &.
006602: 012702 000010       	mov	#10,r2			; B...
006606: 000241              	clc				; !.
006610: 006005              	ror	r5			; ..
006612: 006016              	ror	(r6)			; ..
006614: 102006              	bvc	6632			; ..
006616: 012746 120001       	mov	#120001,-(r6)		; f.. 
006622: 040516              	bic	r5,(r6)			; NA
006624: 042705 120001       	bic	#120001,r5		; EE. 
006630: 052605              	bis	(r6)+,r5		; .U
006632: 005302              	dec	r2			; B.
006634: 003364              	bgt	6606			; t.
006636: 005726              	tst	(r6)+			; V.
006640: 005303              	dec	r3			; C.
006642: 003302              	bgt	6450			; B.
006644: 010526              	mov	r5,(r6)+		; V.
006646: 000207              	ret				; ..
;
006650: 113024              	movb	@(r0)+,(r4)+		; ..
006652: 113226              	movb	@(r2)+,(r6)+		; ..
006654: 002220              	bge	6316			; ..
006656: 000300              	swab	r0			; @.
006660: 000400              	br	6662			; ..
;
006662: 050021              	bis	r0,(r1)+		; .P
006664: 005010              	clr	(r0)			; ..
006666: 000001              	wait				; ..
006670: 171043              	mult	f0,-(r3)		; #r
006672: 177422              	ldcdf	f0,(r2)+		; ..
006674: 002220              	bge	6336			; ..
006676: 000300              	swab	r0			; @.
006700: 000400              	br	6702			; ..
;
006702: 050021              	bis	r0,(r1)+		; .P
006704: 002010              	bge	6726			; ..
006706: 000001              	wait				; ..
006710: 030502              	bit	r5,r2			; B1
006712: 113024              	movb	@(r0)+,(r4)+		; ..
006714: 113226              	movb	@(r2)+,(r6)+		; ..
006716: 002220              	bge	6360			; ..
006720: 000300              	swab	r0			; @.
006722: 000400              	br	6724			; ..
;
006724: 050021              	bis	r0,(r1)+		; .P
006726: 001010              	bne	6750			; ..
006730: 000001              	wait				; ..
006732: 030242              	bit	r2,-(r2)		; "0
006734: 007407              	invalid opcode			; ..
006736: 003407              	ble	6756			; ..
006740: 000007              	mfpt				; ..
006742: 000000              	halt				; ..
006744: 000000              	halt				; ..
006746: 000000              	halt				; ..
006750: 000000              	halt				; ..
006752: 000000              	halt				; ..
006754: 000000              	halt				; ..
006756: 000000              	halt				; ..
006760: 000000              	halt				; ..
006762: 000000              	halt				; ..
006764: 000000              	halt				; ..
;
006766: 010437 177520       	mov	r4,@#177520		; ..P.
006772: 010507              	mov	r5,r7			; G.
006774: 052525              	bis	(r5)+,(r5)+		; UU
006776: 056040 000167       	bis	167(r0),-(r0)		;  \w.
007002: 000432              	br	7070			; ..
;
007004: 012701 173516       	mov	#173516,r1		; A.Nw
007010: 012700 001000       	mov	#1000,r0		; @...
007014: 012716 000200       	mov	#200,(r6)		; N...
007020: 030012              	bit	r0,(r2)			; .0
007022: 001003              	bne	7032			; ..
007024: 005721              	tst	(r1)+			; Q.
007026: 006300              	asl	r0			; @.
007030: 000773              	br	7020			; {.
;
007032: 012766 000020 000002	mov	#20,2(r6)		; v.....
007040: 011166 000004       	mov	(r1),4(r6)		; v...
007044: 111137 177521       	movb	(r1),@#177521		; _.Q.
007050: 012704 173400       	mov	#173400,r4		; D..w
007054: 066666 000002 000004	add	2(r6),4(r6)		; 6m....
007062: 005000              	clr	r0			; ..
007064: 004767 000120       	call	7210			; w.P.
007070: 105303              	decb	r3			; C.
007072: 001373              	bne	7062			; {.
007074: 004767 000110       	call	7210			; w.H.
007100: 004767 000104       	call	7210			; w.D.
007104: 010305              	mov	r3,r5			; E.
007106: 004767 000076       	call	7210			; w.>.
007112: 000303              	swab	r3			; C.
007114: 050305              	bis	r3,r5			; EP
007116: 010502              	mov	r5,r2			; B.
007120: 024242              	cmp	-(r2),-(r2)		; "(
007122: 004767 000062       	call	7210			; w.2.
007126: 010305              	mov	r3,r5			; E.
007130: 004767 000054       	call	7210			; w.,.
007134: 000303              	swab	r3			; C.
007136: 050305              	bis	r3,r5			; EP
007140: 005702              	tst	r2			; B.
007142: 001010              	bne	7164			; ..
007144: 004767 000040       	call	7210			; w. .
007150: 113701 177521       	movb	@#177521,r1		; A.Q.
007154: 012737 007416 177520	mov	#7416,@#177520		; _...P.
007162: 000476              	br	7360			; >.
;
007164: 010501              	mov	r5,r1			; A.
007166: 004767 000016       	call	7210			; w...
007172: 002004              	bge	7204			; ..
007174: 105700              	tstb	r0			; @.
007176: 001731              	beq	7062			; Y.
007200: 000000              	halt				; ..
;
007202: 000727              	br	7062			; W.
;
007204: 110321              	movb	r3,(r1)+		; Q.
007206: 000767              	br	7166			; w.
;
007210: 112403              	movb	(r4)+,r3		; ..
007212: 005204              	inc	r4			; ..
007214: 060300              	add	r3,r0			; @`
007216: 042703 177400       	bic	#177400,r3		; CE..
007222: 005366 000002       	dec	2(r6)			; v...
007226: 001402              	beq	7234			; ..
007230: 005302              	dec	r2			; B.
007232: 000207              	ret				; ..
;
007234: 105237 177521       	incb	@#177521		; ..Q.
007240: 123766 177521 000006	cmpb	@#177521,6(r6)		; v'Q...
007246: 001024              	bne	7320			; ..
007250: 006204              	asr	r4			; ..
007252: 103413              	bcs	7302			; ..
007254: 113737 177521 177522	movb	@#177521,@#177522	; _.Q.R.
007262: 162737 000020 177522	sub	#20,@#177522		; _e..R.
007270: 113737 177522 177521	movb	@#177522,@#177521	; _.R.Q.
007276: 000261              	sec				; 1.
007300: 000410              	br	7322			; ..
;
007302: 113766 177521 000006	movb	@#177521,6(r6)		; v.Q...
007310: 066666 000004 000006	add	4(r6),6(r6)		; 6m....
007316: 000401              	br	7322			; ..
;
007320: 006204              	asr	r4			; ..
007322: 012704 173400       	mov	#173400,r4		; D..w
007326: 103001              	bcc	7332			; ..
007330: 005204              	inc	r4			; ..
007332: 012766 000176 000002	mov	#176,2(r6)		; v.~...
007340: 132737 000001 177521	bitb	#1,@#177521		; _5..Q.
007346: 001003              	bne	7356			; ..
007350: 062766 000002 000002	add	#2,2(r6)		; ve....
007356: 000724              	br	7230			; T.
;
007360: 105700              	tstb	r0			; @.
007362: 001403              	beq	7372			; ..
007364: 000000              	halt				; ..
;
007366: 000167 177406       	jmp	7000			; w...
;
007372: 032705 000001       	bit	#1,r5			; E5..
007376: 001403              	beq	7406			; ..
007400: 000000              	halt				; ..
;
007402: 000167 177372       	jmp	7000			; w.z~
;
007406: 112737 000037 177524	movb	#37,@#177524		; _...T.
007414: 110137 177520       	movb	r1,@#177520		; _.P.
007420: 022705 173000       	cmp	#173000,r5		; E%.v
007424: 101403              	blos	7434			; ..
007426: 012704 000400       	mov	#400,r4			; D...
007432: 000555              	br	7766			; m.
;
007434: 000115              	jmp	(r5)			; M.
;
007436: 012702 177524       	mov	#177524,r2		; B.T.
007442: 112712 000005       	movb	#5,(r2)			; J...
007446: 012706 001000       	mov	#1000,r6		; F...
007452: 005003              	clr	r3			; ..
007454: 012701 000004       	mov	#4,r1			; A...
007460: 012721 173504       	mov	#173504,(r1)+		; Q.Dw
007464: 012711 000340       	mov	#340,(r1)		; I.`.
007470: 011313              	mov	(r3),(r3)		; K.
007472: 062703 004000       	add	#4000,r3		; Ce..
007476: 022703 170000       	cmp	#170000,r3		; C%.p
007502: 001372              	bne	7470			; z.
007504: 162703 000006       	sub	#6,r3			; Ce..
007510: 010306              	mov	r3,r6			; F.
007512: 000167 177266       	jmp	7004			; w.6~
;
007516: 000020              	invalid opcode			; ..
007520: 000040              	invalid opcode			;  .
007522: 000200              	rts	r0			; ..
;
007524: 005001              	clr	r1			; ..
007526: 005003              	clr	r3			; ..
007530: 012706 001000       	mov	#1000,r6		; F...
007534: 012702 000004       	mov	#4,r2			; B...
007540: 012722 173566       	mov	#173566,(r2)+		; R.vw
007544: 012712 000340       	mov	#340,(r2)		; J.`.
007550: 011313              	mov	(r3),(r3)		; K.
007552: 005201              	inc	r1			; ..
007554: 062703 004000       	add	#4000,r3		; Ce..
007560: 022703 170000       	cmp	#170000,r3		; C%.p
007564: 001371              	bne	7550			; y.
007566: 005743              	tst	-(r3)			; c.
007570: 010306              	mov	r3,r6			; F.
007572: 000301              	swab	r1			; A.
007574: 062701 173001       	add	#173001,r1		; Ae.v
007600: 100375              	bpl	7574			; }.
007602: 062701 035057       	add	#35057,r1		; Ae/:
007606: 012737 000006 000004	mov	#6,@#4			; _.....
007614: 005037 000006       	clr	@#6			; ....
007620: 012705 173324       	mov	#173324,r5		; E.Tv
007624: 012704 003406       	mov	#3406,r4		; D...
007630: 000167 000132       	jmp	7766			; w.Z.
;
007634: 112737 000015 177524	movb	#15,@#177524		; _...T.
007642: 012706 001000       	mov	#1000,r6		; F...
007646: 005000              	clr	r0			; ..
007650: 005003              	clr	r3			; ..
007652: 012702 000004       	mov	#4,r2			; B...
007656: 012722 173702       	mov	#173702,(r2)+		; R.Bw
007662: 012712 000340       	mov	#340,(r2)		; J.`.
007666: 005013              	clr	(r3)			; ..
007670: 062703 004000       	add	#4000,r3		; Ce..
007674: 022703 170000       	cmp	#170000,r3		; C%.p
007700: 001372              	bne	7666			; z.
007702: 005043              	clr	-(r3)			; #.
007704: 012705 173000       	mov	#173000,r5		; E..v
007710: 012704 001402       	mov	#1402,r4		; D...
007714: 000167 000046       	jmp	7766			; w.&.
;
007720: 000000              	halt				; ..
007722: 000000              	halt				; ..
007724: 000000              	halt				; ..
007726: 000000              	halt				; ..
007730: 000000              	halt				; ..
007732: 000000              	halt				; ..
007734: 000000              	halt				; ..
007736: 000000              	halt				; ..
007740: 000000              	halt				; ..
007742: 000000              	halt				; ..
007744: 000000              	halt				; ..
007746: 000000              	halt				; ..
007750: 000000              	halt				; ..
007752: 000000              	halt				; ..
007754: 000000              	halt				; ..
007756: 000000              	halt				; ..
007760: 000000              	halt				; ..
007762: 000000              	halt				; ..
007764: 000000              	halt				; ..
;
007766: 010437 177520       	mov	r4,@#177520		; ..P.
007772: 010507              	mov	r5,r7			; G.
007774: 052525              	bis	(r5)+,(r5)+		; UU
007776: 044734              	bic	-(r7),@(r4)+		; \I
